; Function Attrs: mustprogress nofree norecurse nosync nounwind willreturn memory(read, inaccessiblemem: none) uwtable
define noundef i32 @_ZNK6icu_7721CollationRootElements11findPrimaryEj(ptr noundef nonnull readonly align 8 captures(none) dereferenceable(12) %0, i32 noundef %1) local_unnamed_addr #0 align 2 {
  %3 = load ptr, ptr %0, align 8, !tbaa !3
  %4 = getelementptr inbounds nuw i8, ptr %3, i64 8
  %5 = load i32, ptr %4, align 4, !tbaa !10
  %6 = getelementptr inbounds nuw i8, ptr %0, i64 8
  %7 = load i32, ptr %6, align 8, !tbaa !11
  %8 = add nsw i32 %7, -1
  %9 = add nsw i32 %5, 1
  %10 = icmp slt i32 %9, %8
  br i1 %10, label %.lr.ph, label %_ZNK6icu_7721CollationRootElements5findPEj.exit

.lr.ph:                                           ; preds = %2, %._crit_edge62.i
  %.038.i11 = phi i32 [ %.033..038.i, %._crit_edge62.i ], [ %8, %2 ]
  %.041.i10 = phi i32 [ %.041..033.i, %._crit_edge62.i ], [ %5, %2 ]
  %11 = add nsw i32 %.038.i11, %.041.i10
  %12 = sdiv i32 %11, 2
  %13 = sext i32 %12 to i64
  %14 = getelementptr inbounds i32, ptr %3, i64 %13
  %15 = load i32, ptr %14, align 4, !tbaa !10
  %16 = and i32 %15, 128
  %.not.i = icmp eq i32 %16, 0
  br i1 %.not.i, label %._crit_edge62.i, label %.preheader52.i

.preheader52.i:                                   ; preds = %.lr.ph
  %.02953.i = add nsw i32 %12, 1
  %17 = icmp eq i32 %.02953.i, %.038.i11
  br i1 %17, label %.preheader.i, label %.lr.ph.preheader.i

.lr.ph.preheader.i:                               ; preds = %.preheader52.i
  %18 = add nsw i64 %13, 1
  br label %.lr.ph.i

19:                                               ; preds = %.lr.ph.i
  %indvars.iv.next.i = add nsw i64 %indvars.iv.i, 1
  %20 = trunc nsw i64 %indvars.iv.next.i to i32
  %21 = icmp eq i32 %.038.i11, %20
  br i1 %21, label %.preheader.i, label %.lr.ph.i, !llvm.loop !12

.lr.ph.i:                                         ; preds = %19, %.lr.ph.preheader.i
  %indvars.iv.i = phi i64 [ %18, %.lr.ph.preheader.i ], [ %indvars.iv.next.i, %19 ]
  %22 = getelementptr inbounds i32, ptr %3, i64 %indvars.iv.i
  %23 = load i32, ptr %22, align 4, !tbaa !10
  %24 = and i32 %23, 128
  %25 = icmp eq i32 %24, 0
  br i1 %25, label %._crit_edge62.loopexit90.i, label %19, !llvm.loop !12

.preheader.i:                                     ; preds = %19, %.preheader52.i
  %.13059.i = add nsw i32 %12, -1
  %26 = icmp eq i32 %.13059.i, %.041.i10
  br i1 %26, label %_ZNK6icu_7721CollationRootElements5findPEj.exit, label %.lr.ph61.preheader.i

.lr.ph61.preheader.i:                             ; preds = %.preheader.i
  %27 = sext i32 %.13059.i to i64
  br label %.lr.ph61.i

28:                                               ; preds = %.lr.ph61.i
  %indvars.iv.next71.i = add nsw i64 %indvars.iv70.i, -1
  %29 = trunc nsw i64 %indvars.iv.next71.i to i32
  %30 = icmp eq i32 %.041.i10, %29
  br i1 %30, label %_ZNK6icu_7721CollationRootElements5findPEj.exit, label %.lr.ph61.i, !llvm.loop !14

.lr.ph61.i:                                       ; preds = %28, %.lr.ph61.preheader.i
  %indvars.iv70.i = phi i64 [ %27, %.lr.ph61.preheader.i ], [ %indvars.iv.next71.i, %28 ]
  %31 = getelementptr inbounds i32, ptr %3, i64 %indvars.iv70.i
  %32 = load i32, ptr %31, align 4, !tbaa !10
  %33 = and i32 %32, 128
  %34 = icmp eq i32 %33, 0
  br i1 %34, label %._crit_edge62.loopexit.i, label %28, !llvm.loop !14

._crit_edge62.loopexit.i:                         ; preds = %.lr.ph61.i
  %35 = trunc nsw i64 %indvars.iv70.i to i32
  br label %._crit_edge62.i

._crit_edge62.loopexit90.i:                       ; preds = %.lr.ph.i
  %36 = trunc nsw i64 %indvars.iv.i to i32
  br label %._crit_edge62.i

._crit_edge62.i:                                  ; preds = %._crit_edge62.loopexit90.i, %._crit_edge62.loopexit.i, %.lr.ph
  %.033.i = phi i32 [ %12, %.lr.ph ], [ %35, %._crit_edge62.loopexit.i ], [ %36, %._crit_edge62.loopexit90.i ]
  %.031.i = phi i32 [ %15, %.lr.ph ], [ %32, %._crit_edge62.loopexit.i ], [ %23, %._crit_edge62.loopexit90.i ]
  %37 = and i32 %.031.i, -256
  %38 = icmp ult i32 %1, %37
  %.041..033.i = select i1 %38, i32 %.041.i10, i32 %.033.i
  %.033..038.i = select i1 %38, i32 %.033.i, i32 %.038.i11
  %39 = add nsw i32 %.041..033.i, 1
  %40 = icmp slt i32 %39, %.033..038.i
  br i1 %40, label %.lr.ph, label %_ZNK6icu_7721CollationRootElements5findPEj.exit

_ZNK6icu_7721CollationRootElements5findPEj.exit:  ; preds = %.preheader.i, %._crit_edge62.i, %28, %2
  %.041.i9 = phi i32 [ %5, %2 ], [ %.041.i10, %28 ], [ %.041.i10, %.preheader.i ], [ %.041..033.i, %._crit_edge62.i ]
  ret i32 %.041.i9
}